; Function Attrs: mustprogress nounwind uwtable
define hidden void @_ZN19OpenColorIO_v2_4dev18NamedTransformImpl11addCategoryEPKc(ptr noundef nonnull align 8 dereferenceable(224) %this, ptr noundef %category) unnamed_addr #3 align 2 personality ptr @__gxx_personality_v0 {
entry:
  %m_categories = getelementptr inbounds i8, ptr %this, i64 160
  invoke void @_ZN19OpenColorIO_v2_4dev13TokensManager8addTokenEPKc(ptr noundef nonnull align 8 dereferenceable(32) %m_categories, ptr noundef %category)
          to label %invoke.cont unwind label %terminate.lpad

invoke.cont:                                      ; preds = %entry
  ret void

terminate.lpad:                                   ; preds = %entry
  %0 = landingpad { ptr, i32 }
          catch ptr null
  %1 = extractvalue { ptr, i32 } %0, 0
  tail call void @__clang_call_terminate(ptr %1) #19
  unreachable
}